target datalayout = "e-m:e-p270:32:32-p271:32:32-p272:64:64-i64:64-i128:128-f80:128-n8:16:32:64-S128"
target triple = "x86_64-pc-linux-gnu"

%struct.APEContext = type { ptr, ptr, %struct.BswapDSPContext, %struct.LLAudDSPContext, i32, i32, i32, i32, i32, i32, i32, i32, i32, i32, %struct.APEPredictor, %struct.APEPredictor64, ptr, i32, [2 x ptr], ptr, i32, [2 x ptr], i32, [3 x ptr], %struct.APERangecoder, %struct.APERice, %struct.APERice, [3 x [2 x %struct.APEFilter]], %struct.GetBitContext, ptr, ptr, i32, ptr, i32, i32, ptr, ptr, ptr, ptr }
%struct.BswapDSPContext = type { ptr, ptr }
%struct.LLAudDSPContext = type { ptr, ptr }
%struct.APEPredictor = type { ptr, [2 x i32], [2 x i32], [2 x i32], [2 x [4 x i32]], [2 x [5 x i32]], [562 x i32], i32 }
%struct.APEPredictor64 = type { ptr, [2 x i64], [2 x i64], [2 x i64], [2 x [4 x i64]], [2 x [5 x i64]], [562 x i64] }
%struct.APERangecoder = type { i32, i32, i32, i32 }
%struct.APERice = type { i32, i32 }
%struct.APEFilter = type { ptr, ptr, ptr, ptr, i32 }
%struct.GetBitContext = type { ptr, ptr, i32, i32, i32 }

; Function Attrs: nounwind uwtable
define internal void @entropy_decode_stereo_0000(ptr noundef %0, i32 noundef %1) #1 {
  %3 = alloca ptr, align 8
  %4 = alloca i32, align 4
  store ptr %0, ptr %3, align 8, !tbaa !29
  store i32 %1, ptr %4, align 4, !tbaa !32
  %5 = load ptr, ptr %3, align 8, !tbaa !29
  %6 = load ptr, ptr %3, align 8, !tbaa !29
  %7 = getelementptr inbounds nuw %struct.APEContext, ptr %6, i32 0, i32 28
  %8 = load ptr, ptr %3, align 8, !tbaa !29
  %9 = getelementptr inbounds nuw %struct.APEContext, ptr %8, i32 0, i32 18
  %10 = getelementptr inbounds [2 x ptr], ptr %9, i64 0, i64 0
  %11 = load ptr, ptr %10, align 8, !tbaa !72
  %12 = load ptr, ptr %3, align 8, !tbaa !29
  %13 = getelementptr inbounds nuw %struct.APEContext, ptr %12, i32 0, i32 26
  %14 = load i32, ptr %4, align 4, !tbaa !32
  call void @decode_array_0000(ptr noundef %5, ptr noundef %7, ptr noundef %11, ptr noundef %13, i32 noundef %14)
  %15 = load ptr, ptr %3, align 8, !tbaa !29
  %16 = load ptr, ptr %3, align 8, !tbaa !29
  %17 = getelementptr inbounds nuw %struct.APEContext, ptr %16, i32 0, i32 28
  %18 = load ptr, ptr %3, align 8, !tbaa !29
  %19 = getelementptr inbounds nuw %struct.APEContext, ptr %18, i32 0, i32 18
  %20 = getelementptr inbounds [2 x ptr], ptr %19, i64 0, i64 1
  %21 = load ptr, ptr %20, align 8, !tbaa !72
  %22 = load ptr, ptr %3, align 8, !tbaa !29
  %23 = getelementptr inbounds nuw %struct.APEContext, ptr %22, i32 0, i32 25
  %24 = load i32, ptr %4, align 4, !tbaa !32
  call void @decode_array_0000(ptr noundef %15, ptr noundef %17, ptr noundef %21, ptr noundef %23, i32 noundef %24)
  ret void
}