; Function Attrs: nofree norecurse nosync nounwind memory(readwrite, inaccessiblemem: none) uwtable
define internal void @entropy_decode_stereo_0000(ptr noundef captures(none) %0, i32 noundef %1) #5 {
  %3 = getelementptr inbounds nuw i8, ptr %0, i64 7160
  %4 = load ptr, ptr %3, align 8, !tbaa !85
  %5 = getelementptr inbounds nuw i8, ptr %0, i64 7264
  tail call fastcc void @decode_array_0000(ptr noundef %0, ptr noundef %4, ptr noundef nonnull %5, i32 noundef %1)
  %6 = getelementptr inbounds nuw i8, ptr %0, i64 7168
  %7 = load ptr, ptr %6, align 8, !tbaa !85
  %8 = getelementptr inbounds nuw i8, ptr %0, i64 7256
  tail call fastcc void @decode_array_0000(ptr noundef %0, ptr noundef %7, ptr noundef nonnull %8, i32 noundef %1)
  ret void
}